; Function Attrs: nounwind uwtable
define ptr @l_Array_foldlMUnsafe_fold___at___private_Lean_Server_Completion_CompletionCollectors_0__Lean_Server_Completion_forEligibleDeclsWithCancellationM___spec__17___rarg___lambda__1(i64 noundef %0, ptr noundef %1, ptr noundef %2, ptr noundef %3, i64 noundef %4, ptr noundef %5) local_unnamed_addr #0 {
  %7 = getelementptr inbounds nuw i8, ptr %5, i64 8
  %8 = load ptr, ptr %7, align 8, !tbaa !4
  %9 = ptrtoint ptr %8 to i64
  %10 = and i64 %9, 1
  %.not = icmp eq i64 %10, 0
  br i1 %.not, label %11, label %lean_inc.exit14

11:                                               ; preds = %6
  %.val.i = load i32, ptr %8, align 4, !tbaa !8
  %12 = icmp sgt i32 %.val.i, 0
  br i1 %12, label %13, label %15, !prof !11

13:                                               ; preds = %11
  %14 = add nuw i32 %.val.i, 1
  store i32 %14, ptr %8, align 4, !tbaa !8
  br label %lean_inc.exit14

15:                                               ; preds = %11
  %.not.i15 = icmp eq i32 %.val.i, 0
  br i1 %.not.i15, label %lean_inc.exit14, label %16

16:                                               ; preds = %15
  tail call void @lean_inc_ref_cold(ptr noundef nonnull %8) #5
  br label %lean_inc.exit14

lean_inc.exit14:                                  ; preds = %16, %15, %13, %6
  %17 = getelementptr inbounds nuw i8, ptr %5, i64 16
  %18 = load ptr, ptr %17, align 8, !tbaa !4
  %19 = ptrtoint ptr %18 to i64
  %20 = and i64 %19, 1
  %.not19 = icmp eq i64 %20, 0
  br i1 %.not19, label %21, label %lean_inc.exit

21:                                               ; preds = %lean_inc.exit14
  %.val.i16 = load i32, ptr %18, align 4, !tbaa !8
  %22 = icmp sgt i32 %.val.i16, 0
  br i1 %22, label %23, label %25, !prof !11

23:                                               ; preds = %21
  %24 = add nuw i32 %.val.i16, 1
  store i32 %24, ptr %18, align 4, !tbaa !8
  br label %lean_inc.exit

25:                                               ; preds = %21
  %.not.i17 = icmp eq i32 %.val.i16, 0
  br i1 %.not.i17, label %lean_inc.exit, label %26

26:                                               ; preds = %25
  tail call void @lean_inc_ref_cold(ptr noundef nonnull %18) #5
  br label %lean_inc.exit

lean_inc.exit:                                    ; preds = %26, %25, %23, %lean_inc.exit14
  %27 = ptrtoint ptr %5 to i64
  %28 = and i64 %27, 1
  %.not20 = icmp eq i64 %28, 0
  br i1 %.not20, label %29, label %lean_dec.exit

29:                                               ; preds = %lean_inc.exit
  %30 = load i32, ptr %5, align 4, !tbaa !8
  %31 = icmp sgt i32 %30, 1
  br i1 %31, label %32, label %34, !prof !11

32:                                               ; preds = %29
  %33 = add nsw i32 %30, -1
  store i32 %33, ptr %5, align 4, !tbaa !8
  br label %lean_dec.exit

34:                                               ; preds = %29
  %.not.i = icmp eq i32 %30, 0
  br i1 %.not.i, label %lean_dec.exit, label %35

35:                                               ; preds = %34
  tail call void @lean_dec_ref_cold(ptr noundef nonnull %5) #5
  br label %lean_dec.exit

lean_dec.exit:                                    ; preds = %35, %34, %32, %lean_inc.exit
  %36 = add i64 %0, 1
  %37 = tail call ptr @l_Array_foldlMUnsafe_fold___at___private_Lean_Server_Completion_CompletionCollectors_0__Lean_Server_Completion_forEligibleDeclsWithCancellationM___spec__17___rarg(ptr noundef %1, ptr nonnull poison, ptr nonnull poison, ptr nonnull poison, ptr noundef %2, ptr noundef %3, i64 noundef %36, i64 noundef %4, ptr noundef %8, ptr noundef %18)
  ret ptr %37
}